ARM GAS  /tmp/ccvZhh3Y.s 			page 1


   1              		.cpu cortex-m4
   2              		.eabi_attribute 27, 1
   3              		.eabi_attribute 28, 1
   4              		.eabi_attribute 20, 1
   5              		.eabi_attribute 21, 1
   6              		.eabi_attribute 23, 3
   7              		.eabi_attribute 24, 1
   8              		.eabi_attribute 25, 1
   9              		.eabi_attribute 26, 1
  10              		.eabi_attribute 30, 2
  11              		.eabi_attribute 34, 1
  12              		.eabi_attribute 18, 4
  13              		.file	"main.c"
  14              		.text
  15              	.Ltext0:
  16              		.cfi_sections	.debug_frame
  17              		.section	.text.get_sensors_condition,"ax",%progbits
  18              		.align	1
  19              		.p2align 4,,15
  20              		.global	get_sensors_condition
  21              		.syntax unified
  22              		.thumb
  23              		.thumb_func
  24              		.fpu fpv4-sp-d16
  25              		.type	get_sensors_condition, %function
  26              	get_sensors_condition:
  27              	.LFB259:
  28              		.file 1 "main.c"
  29              		.loc 1 33 0
  30              		.cfi_startproc
  31              		@ args = 0, pretend = 0, frame = 8
  32              		@ frame_needed = 0, uses_anonymous_args = 0
  33 0000 2DE9F041 		push	{r4, r5, r6, r7, r8, lr}
  34              		.cfi_def_cfa_offset 24
  35              		.cfi_offset 4, -24
  36              		.cfi_offset 5, -20
  37              		.cfi_offset 6, -16
  38              		.cfi_offset 7, -12
  39              		.cfi_offset 8, -8
  40              		.cfi_offset 14, -4
  41 0004 DFF84080 		ldr	r8, .L10+4
  42 0008 0E4F     		ldr	r7, .L10
  43 000a D8F80030 		ldr	r3, [r8]
  44 000e 82B0     		sub	sp, sp, #8
  45              		.cfi_def_cfa_offset 32
  46              	.LBB24:
  47              		.loc 1 35 0
  48 0010 0024     		movs	r4, #0
  49              	.LBE24:
  50              		.loc 1 33 0
  51 0012 0193     		str	r3, [sp, #4]
  52              	.LVL0:
  53              	.LBB25:
  54              		.loc 1 40 0
  55 0014 2646     		mov	r6, r4
  56              		.loc 1 37 0
  57 0016 0125     		movs	r5, #1
ARM GAS  /tmp/ccvZhh3Y.s 			page 2


  58              	.LVL1:
  59              	.L4:
  60              		.loc 1 36 0
  61 0018 2046     		mov	r0, r4
  62 001a FFF7FEFF 		bl	get_prox
  63              	.LVL2:
  64              		.loc 1 37 0
  65 001e FB28     		cmp	r0, #251
  66 0020 B4BF     		ite	lt
  67 0022 3346     		movlt	r3, r6
  68 0024 2B46     		movge	r3, r5
  69 0026 3B55     		strb	r3, [r7, r4]
  70              		.loc 1 35 0
  71 0028 0134     		adds	r4, r4, #1
  72              	.LVL3:
  73 002a 082C     		cmp	r4, #8
  74 002c F4D1     		bne	.L4
  75              	.LBE25:
  76              		.loc 1 44 0
  77 002e 019A     		ldr	r2, [sp, #4]
  78 0030 D8F80030 		ldr	r3, [r8]
  79 0034 0348     		ldr	r0, .L10
  80 0036 9A42     		cmp	r2, r3
  81 0038 02D1     		bne	.L9
  82 003a 02B0     		add	sp, sp, #8
  83              		.cfi_remember_state
  84              		.cfi_def_cfa_offset 24
  85              		@ sp needed
  86 003c BDE8F081 		pop	{r4, r5, r6, r7, r8, pc}
  87              	.LVL4:
  88              	.L9:
  89              		.cfi_restore_state
  90 0040 FFF7FEFF 		bl	__stack_chk_fail
  91              	.LVL5:
  92              	.L11:
  93              		.align	2
  94              	.L10:
  95 0044 00000000 		.word	.LANCHOR0
  96 0048 00000000 		.word	__stack_chk_guard
  97              		.cfi_endproc
  98              	.LFE259:
  99              		.size	get_sensors_condition, .-get_sensors_condition
 100              		.section	.text.stop,"ax",%progbits
 101              		.align	1
 102              		.p2align 4,,15
 103              		.global	stop
 104              		.syntax unified
 105              		.thumb
 106              		.thumb_func
 107              		.fpu fpv4-sp-d16
 108              		.type	stop, %function
 109              	stop:
 110              	.LFB260:
 111              		.loc 1 46 0
 112              		.cfi_startproc
 113              		@ args = 0, pretend = 0, frame = 8
 114              		@ frame_needed = 0, uses_anonymous_args = 0
ARM GAS  /tmp/ccvZhh3Y.s 			page 3


 115 0000 10B5     		push	{r4, lr}
 116              		.cfi_def_cfa_offset 8
 117              		.cfi_offset 4, -8
 118              		.cfi_offset 14, -4
 119 0002 094C     		ldr	r4, .L17
 120 0004 82B0     		sub	sp, sp, #8
 121              		.cfi_def_cfa_offset 16
 122              		.loc 1 46 0
 123 0006 2368     		ldr	r3, [r4]
 124 0008 0193     		str	r3, [sp, #4]
 125              		.loc 1 47 0
 126 000a 0020     		movs	r0, #0
 127 000c FFF7FEFF 		bl	left_motor_set_speed
 128              	.LVL6:
 129              		.loc 1 48 0
 130 0010 019A     		ldr	r2, [sp, #4]
 131 0012 2368     		ldr	r3, [r4]
 132 0014 9A42     		cmp	r2, r3
 133 0016 05D1     		bne	.L16
 134 0018 0020     		movs	r0, #0
 135              		.loc 1 49 0
 136 001a 02B0     		add	sp, sp, #8
 137              		.cfi_remember_state
 138              		.cfi_def_cfa_offset 8
 139              		@ sp needed
 140 001c BDE81040 		pop	{r4, lr}
 141              		.cfi_restore 14
 142              		.cfi_restore 4
 143              		.cfi_def_cfa_offset 0
 144              		.loc 1 48 0
 145 0020 FFF7FEBF 		b	right_motor_set_speed
 146              	.LVL7:
 147              	.L16:
 148              		.cfi_restore_state
 149 0024 FFF7FEFF 		bl	__stack_chk_fail
 150              	.LVL8:
 151              	.L18:
 152              		.align	2
 153              	.L17:
 154 0028 00000000 		.word	__stack_chk_guard
 155              		.cfi_endproc
 156              	.LFE260:
 157              		.size	stop, .-stop
 158              		.section	.text.right,"ax",%progbits
 159              		.align	1
 160              		.p2align 4,,15
 161              		.global	right
 162              		.syntax unified
 163              		.thumb
 164              		.thumb_func
 165              		.fpu fpv4-sp-d16
 166              		.type	right, %function
 167              	right:
 168              	.LFB261:
 169              		.loc 1 51 0
 170              		.cfi_startproc
 171              		@ args = 0, pretend = 0, frame = 8
ARM GAS  /tmp/ccvZhh3Y.s 			page 4


 172              		@ frame_needed = 0, uses_anonymous_args = 0
 173 0000 10B5     		push	{r4, lr}
 174              		.cfi_def_cfa_offset 8
 175              		.cfi_offset 4, -8
 176              		.cfi_offset 14, -4
 177 0002 0A4C     		ldr	r4, .L24
 178 0004 82B0     		sub	sp, sp, #8
 179              		.cfi_def_cfa_offset 16
 180              		.loc 1 51 0
 181 0006 2368     		ldr	r3, [r4]
 182 0008 0193     		str	r3, [sp, #4]
 183              		.loc 1 52 0
 184 000a 4FF44870 		mov	r0, #800
 185 000e FFF7FEFF 		bl	left_motor_set_speed
 186              	.LVL9:
 187              		.loc 1 53 0
 188 0012 019A     		ldr	r2, [sp, #4]
 189 0014 2368     		ldr	r3, [r4]
 190 0016 9A42     		cmp	r2, r3
 191 0018 05D1     		bne	.L23
 192 001a 0548     		ldr	r0, .L24+4
 193              		.loc 1 54 0
 194 001c 02B0     		add	sp, sp, #8
 195              		.cfi_remember_state
 196              		.cfi_def_cfa_offset 8
 197              		@ sp needed
 198 001e BDE81040 		pop	{r4, lr}
 199              		.cfi_restore 14
 200              		.cfi_restore 4
 201              		.cfi_def_cfa_offset 0
 202              		.loc 1 53 0
 203 0022 FFF7FEBF 		b	right_motor_set_speed
 204              	.LVL10:
 205              	.L23:
 206              		.cfi_restore_state
 207 0026 FFF7FEFF 		bl	__stack_chk_fail
 208              	.LVL11:
 209              	.L25:
 210 002a 00BF     		.align	2
 211              	.L24:
 212 002c 00000000 		.word	__stack_chk_guard
 213 0030 E0FCFFFF 		.word	-800
 214              		.cfi_endproc
 215              	.LFE261:
 216              		.size	right, .-right
 217              		.section	.text.left,"ax",%progbits
 218              		.align	1
 219              		.p2align 4,,15
 220              		.global	left
 221              		.syntax unified
 222              		.thumb
 223              		.thumb_func
 224              		.fpu fpv4-sp-d16
 225              		.type	left, %function
 226              	left:
 227              	.LFB262:
 228              		.loc 1 56 0
ARM GAS  /tmp/ccvZhh3Y.s 			page 5


 229              		.cfi_startproc
 230              		@ args = 0, pretend = 0, frame = 8
 231              		@ frame_needed = 0, uses_anonymous_args = 0
 232 0000 10B5     		push	{r4, lr}
 233              		.cfi_def_cfa_offset 8
 234              		.cfi_offset 4, -8
 235              		.cfi_offset 14, -4
 236 0002 0A4C     		ldr	r4, .L31
 237              		.loc 1 57 0
 238 0004 0A48     		ldr	r0, .L31+4
 239              		.loc 1 56 0
 240 0006 2368     		ldr	r3, [r4]
 241 0008 82B0     		sub	sp, sp, #8
 242              		.cfi_def_cfa_offset 16
 243              		.loc 1 56 0
 244 000a 0193     		str	r3, [sp, #4]
 245              		.loc 1 57 0
 246 000c FFF7FEFF 		bl	left_motor_set_speed
 247              	.LVL12:
 248              		.loc 1 58 0
 249 0010 019A     		ldr	r2, [sp, #4]
 250 0012 2368     		ldr	r3, [r4]
 251 0014 9A42     		cmp	r2, r3
 252 0016 06D1     		bne	.L30
 253 0018 4FF44870 		mov	r0, #800
 254              		.loc 1 59 0
 255 001c 02B0     		add	sp, sp, #8
 256              		.cfi_remember_state
 257              		.cfi_def_cfa_offset 8
 258              		@ sp needed
 259 001e BDE81040 		pop	{r4, lr}
 260              		.cfi_restore 14
 261              		.cfi_restore 4
 262              		.cfi_def_cfa_offset 0
 263              		.loc 1 58 0
 264 0022 FFF7FEBF 		b	right_motor_set_speed
 265              	.LVL13:
 266              	.L30:
 267              		.cfi_restore_state
 268 0026 FFF7FEFF 		bl	__stack_chk_fail
 269              	.LVL14:
 270              	.L32:
 271 002a 00BF     		.align	2
 272              	.L31:
 273 002c 00000000 		.word	__stack_chk_guard
 274 0030 E0FCFFFF 		.word	-800
 275              		.cfi_endproc
 276              	.LFE262:
 277              		.size	left, .-left
 278              		.section	.text.forward,"ax",%progbits
 279              		.align	1
 280              		.p2align 4,,15
 281              		.global	forward
 282              		.syntax unified
 283              		.thumb
 284              		.thumb_func
 285              		.fpu fpv4-sp-d16
ARM GAS  /tmp/ccvZhh3Y.s 			page 6


 286              		.type	forward, %function
 287              	forward:
 288              	.LFB263:
 289              		.loc 1 61 0
 290              		.cfi_startproc
 291              		@ args = 0, pretend = 0, frame = 8
 292              		@ frame_needed = 0, uses_anonymous_args = 0
 293 0000 10B5     		push	{r4, lr}
 294              		.cfi_def_cfa_offset 8
 295              		.cfi_offset 4, -8
 296              		.cfi_offset 14, -4
 297 0002 0A4C     		ldr	r4, .L38
 298 0004 82B0     		sub	sp, sp, #8
 299              		.cfi_def_cfa_offset 16
 300              		.loc 1 61 0
 301 0006 2368     		ldr	r3, [r4]
 302 0008 0193     		str	r3, [sp, #4]
 303              		.loc 1 62 0
 304 000a 4FF44870 		mov	r0, #800
 305 000e FFF7FEFF 		bl	left_motor_set_speed
 306              	.LVL15:
 307              		.loc 1 63 0
 308 0012 019A     		ldr	r2, [sp, #4]
 309 0014 2368     		ldr	r3, [r4]
 310 0016 9A42     		cmp	r2, r3
 311 0018 06D1     		bne	.L37
 312 001a 4FF44870 		mov	r0, #800
 313              		.loc 1 64 0
 314 001e 02B0     		add	sp, sp, #8
 315              		.cfi_remember_state
 316              		.cfi_def_cfa_offset 8
 317              		@ sp needed
 318 0020 BDE81040 		pop	{r4, lr}
 319              		.cfi_restore 14
 320              		.cfi_restore 4
 321              		.cfi_def_cfa_offset 0
 322              		.loc 1 63 0
 323 0024 FFF7FEBF 		b	right_motor_set_speed
 324              	.LVL16:
 325              	.L37:
 326              		.cfi_restore_state
 327 0028 FFF7FEFF 		bl	__stack_chk_fail
 328              	.LVL17:
 329              	.L39:
 330              		.align	2
 331              	.L38:
 332 002c 00000000 		.word	__stack_chk_guard
 333              		.cfi_endproc
 334              	.LFE263:
 335              		.size	forward, .-forward
 336              		.section	.text.rot_inbetween,"ax",%progbits
 337              		.align	1
 338              		.p2align 4,,15
 339              		.global	rot_inbetween
 340              		.syntax unified
 341              		.thumb
 342              		.thumb_func
ARM GAS  /tmp/ccvZhh3Y.s 			page 7


 343              		.fpu fpv4-sp-d16
 344              		.type	rot_inbetween, %function
 345              	rot_inbetween:
 346              	.LFB265:
 347              		.loc 1 70 0
 348              		.cfi_startproc
 349              		@ args = 0, pretend = 0, frame = 8
 350              		@ frame_needed = 0, uses_anonymous_args = 0
 351              	.LVL18:
 352 0000 10B5     		push	{r4, lr}
 353              		.cfi_def_cfa_offset 8
 354              		.cfi_offset 4, -8
 355              		.cfi_offset 14, -4
 356 0002 2DED028B 		vpush.64	{d8}
 357              		.cfi_def_cfa_offset 16
 358              		.cfi_offset 80, -16
 359              		.cfi_offset 81, -12
 360 0006 194C     		ldr	r4, .L45
 361              	.LBB26:
 362              	.LBB27:
 363              		.loc 1 57 0
 364 0008 1948     		ldr	r0, .L45+4
 365              	.LBE27:
 366              	.LBE26:
 367              		.loc 1 70 0
 368 000a 2368     		ldr	r3, [r4]
 369 000c 82B0     		sub	sp, sp, #8
 370              		.cfi_def_cfa_offset 24
 371              		.loc 1 70 0
 372 000e B0EE408A 		vmov.f32	s16, s0
 373 0012 0193     		str	r3, [sp, #4]
 374              	.LBB29:
 375              	.LBB28:
 376              		.loc 1 57 0
 377 0014 FFF7FEFF 		bl	left_motor_set_speed
 378              	.LVL19:
 379              		.loc 1 58 0
 380 0018 4FF44870 		mov	r0, #800
 381 001c FFF7FEFF 		bl	right_motor_set_speed
 382              	.LVL20:
 383              	.LBE28:
 384              	.LBE29:
 385              	.LBB30:
 386              	.LBB31:
 387              		.loc 1 67 0
 388 0020 9FED147A 		vldr.32	s14, .L45+8
 389              	.LBE31:
 390              	.LBE30:
 391              		.loc 1 74 0
 392 0024 144A     		ldr	r2, .L45+12
 393              	.LBB33:
 394              	.LBB32:
 395              		.loc 1 67 0
 396 0026 C8EE077A 		vdiv.f32	s15, s16, s14
 397              	.LBE32:
 398              	.LBE33:
 399              		.loc 1 74 0
ARM GAS  /tmp/ccvZhh3Y.s 			page 8


 400 002a 4FF47A73 		mov	r3, #1000
 401 002e FCEEE77A 		vcvt.u32.f32	s15, s15
 402 0032 17EE900A 		vmov	r0, s15	@ int
 403 0036 03FB00F0 		mul	r0, r3, r0
 404 003a 00F2E730 		addw	r0, r0, #999
 405 003e A2FB0030 		umull	r3, r0, r2, r0
 406 0042 8009     		lsrs	r0, r0, #6
 407 0044 FFF7FEFF 		bl	chThdSleep
 408              	.LVL21:
 409              	.LBB34:
 410              	.LBB35:
 411              		.loc 1 47 0
 412 0048 0020     		movs	r0, #0
 413 004a FFF7FEFF 		bl	left_motor_set_speed
 414              	.LVL22:
 415              		.loc 1 48 0
 416 004e 019A     		ldr	r2, [sp, #4]
 417 0050 2368     		ldr	r3, [r4]
 418 0052 9A42     		cmp	r2, r3
 419 0054 07D1     		bne	.L44
 420 0056 0020     		movs	r0, #0
 421              	.LBE35:
 422              	.LBE34:
 423              		.loc 1 76 0
 424 0058 02B0     		add	sp, sp, #8
 425              		.cfi_remember_state
 426              		.cfi_def_cfa_offset 16
 427              		@ sp needed
 428 005a BDEC028B 		vldm	sp!, {d8}
 429              		.cfi_restore 80
 430              		.cfi_restore 81
 431              		.cfi_def_cfa_offset 8
 432              	.LVL23:
 433 005e BDE81040 		pop	{r4, lr}
 434              		.cfi_restore 14
 435              		.cfi_restore 4
 436              		.cfi_def_cfa_offset 0
 437              	.LBB37:
 438              	.LBB36:
 439              		.loc 1 48 0
 440 0062 FFF7FEBF 		b	right_motor_set_speed
 441              	.LVL24:
 442              	.L44:
 443              		.cfi_restore_state
 444 0066 FFF7FEFF 		bl	__stack_chk_fail
 445              	.LVL25:
 446              	.L46:
 447 006a 00BF     		.align	2
 448              	.L45:
 449 006c 00000000 		.word	__stack_chk_guard
 450 0070 E0FCFFFF 		.word	-800
 451 0074 47CB8D43 		.word	1133366087
 452 0078 D34D6210 		.word	274877907
 453              	.LBE36:
 454              	.LBE37:
 455              		.cfi_endproc
 456              	.LFE265:
ARM GAS  /tmp/ccvZhh3Y.s 			page 9


 457              		.size	rot_inbetween, .-rot_inbetween
 458              		.section	.text.startup.main,"ax",%progbits
 459              		.align	1
 460              		.p2align 4,,15
 461              		.global	main
 462              		.syntax unified
 463              		.thumb
 464              		.thumb_func
 465              		.fpu fpv4-sp-d16
 466              		.type	main, %function
 467              	main:
 468              	.LFB266:
 469              		.loc 1 79 0
 470              		.cfi_startproc
 471              		@ args = 0, pretend = 0, frame = 8
 472              		@ frame_needed = 0, uses_anonymous_args = 0
 473 0000 10B5     		push	{r4, lr}
 474              		.cfi_def_cfa_offset 8
 475              		.cfi_offset 4, -8
 476              		.cfi_offset 14, -4
 477 0002 4F4B     		ldr	r3, .L69
 478              		.loc 1 81 0
 479 0004 4F4A     		ldr	r2, .L69+4
 480              		.loc 1 79 0
 481 0006 1B68     		ldr	r3, [r3]
 482              		.loc 1 81 0
 483 0008 4F49     		ldr	r1, .L69+8
 484 000a 5048     		ldr	r0, .L69+12
 485              		.loc 1 79 0
 486 000c 82B0     		sub	sp, sp, #8
 487              		.cfi_def_cfa_offset 16
 488              	.LBB38:
 489              		.loc 1 90 0
 490 000e 0024     		movs	r4, #0
 491              	.LBE38:
 492              		.loc 1 79 0
 493 0010 0193     		str	r3, [sp, #4]
 494              		.loc 1 81 0
 495 0012 FFF7FEFF 		bl	messagebus_init
 496              	.LVL26:
 497              		.loc 1 83 0
 498 0016 FFF7FEFF 		bl	halInit
 499              	.LVL27:
 500              		.loc 1 84 0
 501 001a FFF7FEFF 		bl	chSysInit
 502              	.LVL28:
 503              		.loc 1 85 0
 504 001e FFF7FEFF 		bl	mpu_init
 505              	.LVL29:
 506              		.loc 1 88 0
 507 0022 FFF7FEFF 		bl	motors_init
 508              	.LVL30:
 509              	.L48:
 510              	.LBB39:
 511              		.loc 1 91 0 discriminator 3
 512 0026 E0B2     		uxtb	r0, r4
 513              		.loc 1 90 0 discriminator 3
ARM GAS  /tmp/ccvZhh3Y.s 			page 10


 514 0028 0134     		adds	r4, r4, #1
 515              	.LVL31:
 516              		.loc 1 91 0 discriminator 3
 517 002a FFF7FEFF 		bl	proximity_start
 518              	.LVL32:
 519              		.loc 1 90 0 discriminator 3
 520 002e 082C     		cmp	r4, #8
 521 0030 F9D1     		bne	.L48
 522              	.LBE39:
 523              		.loc 1 93 0
 524 0032 FFF7FEFF 		bl	calibrate_ir
 525              	.LVL33:
 526              		.loc 1 95 0
 527 0036 FFF7FEFF 		bl	clear_leds
 528              	.LVL34:
 529              		.loc 1 96 0
 530 003a FFF7FEFF 		bl	spi_comm_start
 531              	.LVL35:
 532 003e 1BE0     		b	.L52
 533              	.LVL36:
 534              	.L66:
 535              	.LBB40:
 536              		.loc 1 106 0 discriminator 1
 537 0040 8379     		ldrb	r3, [r0, #6]	@ zero_extendqisi2
 538 0042 002B     		cmp	r3, #0
 539 0044 4ED1     		bne	.L65
 540              	.L50:
 541              		.loc 1 128 0
 542 0046 0020     		movs	r0, #0
 543              	.LVL37:
 544 0048 FFF7FEFF 		bl	set_body_led
 545              	.LVL38:
 546              		.loc 1 129 0
 547 004c 0023     		movs	r3, #0
 548 004e 1A46     		mov	r2, r3
 549 0050 1846     		mov	r0, r3
 550 0052 0A21     		movs	r1, #10
 551 0054 FFF7FEFF 		bl	set_rgb_led
 552              	.LVL39:
 553              	.LBB41:
 554              	.LBB42:
 555              		.loc 1 57 0
 556 0058 3D48     		ldr	r0, .L69+16
 557 005a FFF7FEFF 		bl	left_motor_set_speed
 558              	.LVL40:
 559              		.loc 1 58 0
 560 005e 4FF44870 		mov	r0, #800
 561 0062 FFF7FEFF 		bl	right_motor_set_speed
 562              	.LVL41:
 563              	.LBE42:
 564              	.LBE41:
 565              		.loc 1 131 0
 566 0066 0023     		movs	r3, #0
 567 0068 1946     		mov	r1, r3
 568 006a 1846     		mov	r0, r3
 569 006c 0A22     		movs	r2, #10
 570 006e FFF7FEFF 		bl	set_rgb_led
ARM GAS  /tmp/ccvZhh3Y.s 			page 11


 571              	.LVL42:
 572              	.L51:
 573              		.loc 1 144 0
 574 0072 C820     		movs	r0, #200
 575 0074 FFF7FEFF 		bl	chThdSleep
 576              	.LVL43:
 577              	.L52:
 578              		.loc 1 100 0
 579 0078 0023     		movs	r3, #0
 580 007a 1A46     		mov	r2, r3
 581 007c 0A21     		movs	r1, #10
 582 007e 0120     		movs	r0, #1
 583 0080 FFF7FEFF 		bl	set_rgb_led
 584              	.LVL44:
 585              		.loc 1 101 0
 586 0084 0023     		movs	r3, #0
 587 0086 1A46     		mov	r2, r3
 588 0088 0A21     		movs	r1, #10
 589 008a 0220     		movs	r0, #2
 590 008c FFF7FEFF 		bl	set_rgb_led
 591              	.LVL45:
 592              		.loc 1 102 0
 593 0090 0121     		movs	r1, #1
 594 0092 0220     		movs	r0, #2
 595 0094 FFF7FEFF 		bl	set_led
 596              	.LVL46:
 597              		.loc 1 105 0
 598 0098 FFF7FEFF 		bl	get_sensors_condition
 599              	.LVL47:
 600              		.loc 1 106 0
 601 009c 4378     		ldrb	r3, [r0, #1]	@ zero_extendqisi2
 602 009e 002B     		cmp	r3, #0
 603 00a0 CED1     		bne	.L66
 604              		.loc 1 116 0
 605 00a2 8379     		ldrb	r3, [r0, #6]	@ zero_extendqisi2
 606 00a4 0278     		ldrb	r2, [r0]	@ zero_extendqisi2
 607 00a6 D3B9     		cbnz	r3, .L67
 608              		.loc 1 127 0
 609 00a8 002A     		cmp	r2, #0
 610 00aa CCD1     		bne	.L50
 611              		.loc 1 132 0
 612 00ac C379     		ldrb	r3, [r0, #7]	@ zero_extendqisi2
 613 00ae D3B3     		cbz	r3, .L68
 614              	.L54:
 615              		.loc 1 133 0
 616 00b0 0020     		movs	r0, #0
 617              	.LVL48:
 618 00b2 FFF7FEFF 		bl	set_body_led
 619              	.LVL49:
 620              		.loc 1 134 0
 621 00b6 0023     		movs	r3, #0
 622 00b8 1A46     		mov	r2, r3
 623 00ba 0A21     		movs	r1, #10
 624 00bc 0320     		movs	r0, #3
 625 00be FFF7FEFF 		bl	set_rgb_led
 626              	.LVL50:
 627              	.LBB43:
ARM GAS  /tmp/ccvZhh3Y.s 			page 12


 628              	.LBB44:
 629              		.loc 1 52 0
 630 00c2 4FF44870 		mov	r0, #800
 631 00c6 FFF7FEFF 		bl	left_motor_set_speed
 632              	.LVL51:
 633              		.loc 1 53 0
 634 00ca 2148     		ldr	r0, .L69+16
 635 00cc FFF7FEFF 		bl	right_motor_set_speed
 636              	.LVL52:
 637              	.LBE44:
 638              	.LBE43:
 639              		.loc 1 136 0
 640 00d0 0023     		movs	r3, #0
 641 00d2 1946     		mov	r1, r3
 642 00d4 0A22     		movs	r2, #10
 643 00d6 0320     		movs	r0, #3
 644 00d8 FFF7FEFF 		bl	set_rgb_led
 645              	.LVL53:
 646 00dc C9E7     		b	.L51
 647              	.LVL54:
 648              	.L67:
 649              		.loc 1 127 0
 650 00de 002A     		cmp	r2, #0
 651 00e0 E6D0     		beq	.L54
 652 00e2 B0E7     		b	.L50
 653              	.L65:
 654              		.loc 1 107 0
 655 00e4 0020     		movs	r0, #0
 656              	.LVL55:
 657 00e6 FFF7FEFF 		bl	set_body_led
 658              	.LVL56:
 659              		.loc 1 108 0
 660 00ea 0023     		movs	r3, #0
 661 00ec 1A46     		mov	r2, r3
 662 00ee 1846     		mov	r0, r3
 663 00f0 0A21     		movs	r1, #10
 664 00f2 FFF7FEFF 		bl	set_rgb_led
 665              	.LVL57:
 666              	.LBB45:
 667              	.LBB46:
 668              		.loc 1 57 0
 669 00f6 1648     		ldr	r0, .L69+16
 670 00f8 FFF7FEFF 		bl	left_motor_set_speed
 671              	.LVL58:
 672              		.loc 1 58 0
 673 00fc 4FF44870 		mov	r0, #800
 674 0100 FFF7FEFF 		bl	right_motor_set_speed
 675              	.LVL59:
 676              	.LBE46:
 677              	.LBE45:
 678              		.loc 1 111 0
 679 0104 40F27A20 		movw	r0, #634
 680 0108 FFF7FEFF 		bl	chThdSleep
 681              	.LVL60:
 682              		.loc 1 112 0
 683 010c 0023     		movs	r3, #0
 684 010e 1846     		mov	r0, r3
ARM GAS  /tmp/ccvZhh3Y.s 			page 13


 685 0110 1946     		mov	r1, r3
 686 0112 0A22     		movs	r2, #10
 687 0114 FFF7FEFF 		bl	set_rgb_led
 688              	.LVL61:
 689              	.LBB47:
 690              	.LBB48:
 691              		.loc 1 47 0
 692 0118 0020     		movs	r0, #0
 693 011a FFF7FEFF 		bl	left_motor_set_speed
 694              	.LVL62:
 695              		.loc 1 48 0
 696 011e 0020     		movs	r0, #0
 697 0120 FFF7FEFF 		bl	right_motor_set_speed
 698              	.LVL63:
 699 0124 A5E7     		b	.L51
 700              	.LVL64:
 701              	.L68:
 702              	.LBE48:
 703              	.LBE47:
 704              		.loc 1 138 0
 705 0126 0120     		movs	r0, #1
 706              	.LVL65:
 707 0128 FFF7FEFF 		bl	set_body_led
 708              	.LVL66:
 709              	.LBB49:
 710              	.LBB50:
 711              		.loc 1 62 0
 712 012c 4FF44870 		mov	r0, #800
 713 0130 FFF7FEFF 		bl	left_motor_set_speed
 714              	.LVL67:
 715              		.loc 1 63 0
 716 0134 4FF44870 		mov	r0, #800
 717 0138 FFF7FEFF 		bl	right_motor_set_speed
 718              	.LVL68:
 719 013c 99E7     		b	.L51
 720              	.L70:
 721 013e 00BF     		.align	2
 722              	.L69:
 723 0140 00000000 		.word	__stack_chk_guard
 724 0144 00000000 		.word	.LANCHOR1
 725 0148 00000000 		.word	.LANCHOR2
 726 014c 00000000 		.word	.LANCHOR3
 727 0150 E0FCFFFF 		.word	-800
 728              	.LBE50:
 729              	.LBE49:
 730              	.LBE40:
 731              		.cfi_endproc
 732              	.LFE266:
 733              		.size	main, .-main
 734              		.section	.text.__stack_chk_fail,"ax",%progbits
 735              		.align	1
 736              		.p2align 4,,15
 737              		.global	__stack_chk_fail
 738              		.syntax unified
 739              		.thumb
 740              		.thumb_func
 741              		.fpu fpv4-sp-d16
ARM GAS  /tmp/ccvZhh3Y.s 			page 14


 742              		.type	__stack_chk_fail, %function
 743              	__stack_chk_fail:
 744              	.LFB267:
 745              		.loc 1 152 0
 746              		.cfi_startproc
 747              		@ args = 0, pretend = 0, frame = 8
 748              		@ frame_needed = 0, uses_anonymous_args = 0
 749 0000 00B5     		push	{lr}
 750              		.cfi_def_cfa_offset 4
 751              		.cfi_offset 14, -4
 752 0002 084B     		ldr	r3, .L76
 753 0004 83B0     		sub	sp, sp, #12
 754              		.cfi_def_cfa_offset 16
 755              		.loc 1 152 0
 756 0006 1A68     		ldr	r2, [r3]
 757 0008 0192     		str	r2, [sp, #4]
 758              		.loc 1 153 0
 759 000a 019A     		ldr	r2, [sp, #4]
 760 000c 1B68     		ldr	r3, [r3]
 761 000e 9A42     		cmp	r2, r3
 762 0010 05D1     		bne	.L75
 763 0012 0548     		ldr	r0, .L76+4
 764              		.loc 1 154 0
 765 0014 03B0     		add	sp, sp, #12
 766              		.cfi_remember_state
 767              		.cfi_def_cfa_offset 4
 768              		@ sp needed
 769 0016 5DF804EB 		ldr	lr, [sp], #4
 770              		.cfi_restore 14
 771              		.cfi_def_cfa_offset 0
 772              		.loc 1 153 0
 773 001a FFF7FEBF 		b	chSysHalt
 774              	.LVL69:
 775              	.L75:
 776              		.cfi_restore_state
 777 001e FFF7FEFF 		bl	__stack_chk_fail
 778              	.LVL70:
 779              	.L77:
 780 0022 00BF     		.align	2
 781              	.L76:
 782 0024 00000000 		.word	__stack_chk_guard
 783 0028 00000000 		.word	.LC0
 784              		.cfi_endproc
 785              	.LFE267:
 786              		.size	__stack_chk_fail, .-__stack_chk_fail
 787              		.global	__stack_chk_guard
 788              		.global	bus_condvar
 789              		.global	bus_lock
 790              		.global	bus
 791              		.section	.bss.bus,"aw",%nobits
 792              		.align	2
 793              		.set	.LANCHOR3,. + 0
 794              		.type	bus, %object
 795              		.size	bus, 12
 796              	bus:
 797 0000 00000000 		.space	12
 797      00000000 
ARM GAS  /tmp/ccvZhh3Y.s 			page 15


 797      00000000 
 798              		.section	.bss.sensors_state.12684,"aw",%nobits
 799              		.align	2
 800              		.set	.LANCHOR0,. + 0
 801              		.type	sensors_state.12684, %object
 802              		.size	sensors_state.12684, 8
 803              	sensors_state.12684:
 804 0000 00000000 		.space	8
 804      00000000 
 805              		.section	.data.__stack_chk_guard,"aw",%progbits
 806              		.align	2
 807              		.type	__stack_chk_guard, %object
 808              		.size	__stack_chk_guard, 4
 809              	__stack_chk_guard:
 810 0000 96E3DEE2 		.word	-488709226
 811              		.section	.data.bus_condvar,"aw",%progbits
 812              		.align	2
 813              		.set	.LANCHOR1,. + 0
 814              		.type	bus_condvar, %object
 815              		.size	bus_condvar, 8
 816              	bus_condvar:
 817 0000 00000000 		.word	bus_condvar
 818 0004 00000000 		.word	bus_condvar
 819              		.section	.data.bus_lock,"aw",%progbits
 820              		.align	2
 821              		.set	.LANCHOR2,. + 0
 822              		.type	bus_lock, %object
 823              		.size	bus_lock, 20
 824              	bus_lock:
 825 0000 00000000 		.word	bus_lock
 826 0004 00000000 		.word	bus_lock
 827 0008 00000000 		.word	0
 828 000c 00000000 		.word	0
 829 0010 00000000 		.word	0
 830              		.section	.rodata.__stack_chk_fail.str1.4,"aMS",%progbits,1
 831              		.align	2
 832              	.LC0:
 833 0000 53746163 		.ascii	"Stack smashing detected\000"
 833      6B20736D 
 833      61736869 
 833      6E672064 
 833      65746563 
 834              		.text
 835              	.Letext0:
 836              		.file 2 "/home/acse-lab/Documents/epuck_1L/Eclipse_e-puck2/Tools/gcc-arm-none-eabi-7-2017-q4-major
 837              		.file 3 "/home/acse-lab/Documents/epuck_1L/Eclipse_e-puck2/Tools/gcc-arm-none-eabi-7-2017-q4-major
 838              		.file 4 "/home/acse-lab/Documents/epuck_1L/Eclipse_e-puck2/Tools/gcc-arm-none-eabi-7-2017-q4-major
 839              		.file 5 "/home/acse-lab/Documents/epuck_1L/Eclipse_e-puck2/Tools/gcc-arm-none-eabi-7-2017-q4-major
 840              		.file 6 "/home/acse-lab/Documents/epuck_1L/Eclipse_e-puck2/Tools/gcc-arm-none-eabi-7-2017-q4-major
 841              		.file 7 "/home/acse-lab/Documents/epuck_1L/Eclipse_e-puck2/Tools/gcc-arm-none-eabi-7-2017-q4-major
 842              		.file 8 "/home/acse-lab/Documents/epuck_1L/Eclipse_e-puck2/Tools/gcc-arm-none-eabi-7-2017-q4-major
 843              		.file 9 "/home/acse-lab/Documents/epuck_1L/Eclipse_e-puck2/Tools/gcc-arm-none-eabi-7-2017-q4-major
 844              		.file 10 "../e-puck2_main-processor/ChibiOS//os/rt/ports/ARMCMx/compilers/GCC/chtypes.h"
 845              		.file 11 "../e-puck2_main-processor/ChibiOS//os/rt/include/chsystypes.h"
 846              		.file 12 "../e-puck2_main-processor/ChibiOS//os/rt/include/chschd.h"
 847              		.file 13 "../e-puck2_main-processor/ChibiOS//os/ext/CMSIS/include/core_cm4.h"
 848              		.file 14 "../e-puck2_main-processor/ChibiOS//os/ext/CMSIS/ST/system_stm32f4xx.h"
ARM GAS  /tmp/ccvZhh3Y.s 			page 16


 849              		.file 15 "../e-puck2_main-processor/ChibiOS//os/ext/CMSIS/ST/stm32f407xx.h"
 850              		.file 16 "../e-puck2_main-processor/ChibiOS//os/rt/ports/ARMCMx/chcore.h"
 851              		.file 17 "../e-puck2_main-processor/ChibiOS//os/rt/ports/ARMCMx/chcore_v7m.h"
 852              		.file 18 "../e-puck2_main-processor/ChibiOS//os/rt/include/chdebug.h"
 853              		.file 19 "../e-puck2_main-processor/ChibiOS//os/rt/include/chtm.h"
 854              		.file 20 "../e-puck2_main-processor/ChibiOS//os/rt/include/chstats.h"
 855              		.file 21 "../e-puck2_main-processor/ChibiOS//os/rt/include/chsem.h"
 856              		.file 22 "../e-puck2_main-processor/ChibiOS//os/rt/include/chmtx.h"
 857              		.file 23 "../e-puck2_main-processor/ChibiOS//os/rt/include/chregistry.h"
 858              		.file 24 "../e-puck2_main-processor/ChibiOS//os/rt/include/chcond.h"
 859              		.file 25 "../e-puck2_main-processor/ChibiOS//os/rt/include/chevents.h"
 860              		.file 26 "../e-puck2_main-processor/ChibiOS//os/rt/include/chqueues.h"
 861              		.file 27 "../e-puck2_main-processor/ChibiOS//os/hal/ports/STM32/STM32F4xx/stm32_dma.h"
 862              		.file 28 "../e-puck2_main-processor/ChibiOS//os/hal/include/hal_ioblock.h"
 863              		.file 29 "../e-puck2_main-processor/ChibiOS//os/hal/ports/STM32/LLD/GPIOv2/pal_lld.h"
 864              		.file 30 "../e-puck2_main-processor/ChibiOS//os/hal/include/adc.h"
 865              		.file 31 "../e-puck2_main-processor/ChibiOS//os/hal/ports/STM32/STM32F4xx/adc_lld.h"
 866              		.file 32 "../e-puck2_main-processor/ChibiOS//os/hal/include/can.h"
 867              		.file 33 "../e-puck2_main-processor/ChibiOS//os/hal/ports/STM32/LLD/can_lld.h"
 868              		.file 34 "../e-puck2_main-processor/ChibiOS//os/hal/include/dac.h"
 869              		.file 35 "../e-puck2_main-processor/ChibiOS//os/hal/ports/STM32/LLD/DACv1/dac_lld.h"
 870              		.file 36 "../e-puck2_main-processor/ChibiOS//os/hal/include/ext.h"
 871              		.file 37 "../e-puck2_main-processor/ChibiOS//os/hal/ports/STM32/LLD/ext_lld.h"
 872              		.file 38 "../e-puck2_main-processor/ChibiOS//os/hal/include/gpt.h"
 873              		.file 39 "../e-puck2_main-processor/ChibiOS//os/hal/ports/STM32/LLD/TIMv1/gpt_lld.h"
 874              		.file 40 "../e-puck2_main-processor/ChibiOS//os/hal/ports/STM32/LLD/TIMv1/stm32_tim.h"
 875              		.file 41 "../e-puck2_main-processor/ChibiOS//os/hal/include/i2c.h"
 876              		.file 42 "../e-puck2_main-processor/ChibiOS//os/hal/ports/STM32/LLD/I2Cv1/i2c_lld.h"
 877              		.file 43 "../e-puck2_main-processor/ChibiOS//os/hal/include/i2s.h"
 878              		.file 44 "../e-puck2_main-processor/ChibiOS//os/hal/ports/STM32/LLD/SPIv1/i2s_lld.h"
 879              		.file 45 "../e-puck2_main-processor/ChibiOS//os/hal/include/pwm.h"
 880              		.file 46 "../e-puck2_main-processor/ChibiOS//os/hal/ports/STM32/LLD/TIMv1/pwm_lld.h"
 881              		.file 47 "../e-puck2_main-processor/ChibiOS//os/hal/include/serial.h"
 882              		.file 48 "../e-puck2_main-processor/ChibiOS//os/hal/ports/STM32/LLD/USARTv1/serial_lld.h"
 883              		.file 49 "../e-puck2_main-processor/ChibiOS//os/hal/include/sdc.h"
 884              		.file 50 "../e-puck2_main-processor/ChibiOS//os/hal/ports/STM32/LLD/sdc_lld.h"
 885              		.file 51 "../e-puck2_main-processor/ChibiOS//os/hal/include/spi.h"
 886              		.file 52 "../e-puck2_main-processor/ChibiOS//os/hal/ports/STM32/LLD/SPIv1/spi_lld.h"
 887              		.file 53 "../e-puck2_main-processor/ChibiOS//os/hal/include/usb.h"
 888              		.file 54 "../e-puck2_main-processor/ChibiOS//os/hal/ports/STM32/LLD/OTGv1/usb_lld.h"
 889              		.file 55 "../e-puck2_main-processor/ChibiOS//os/hal/ports/STM32/LLD/OTGv1/stm32_otg.h"
 890              		.file 56 "/home/acse-lab/Documents/epuck_1L/Eclipse_e-puck2/Tools/gcc-arm-none-eabi-7-2017-q4-majo
 891              		.file 57 "../e-puck2_main-processor/src/msgbus/messagebus.h"
 892              		.file 58 "../e-puck2_main-processor/src/parameter/parameter.h"
 893              		.file 59 "./main.h"
 894              		.file 60 "../e-puck2_main-processor/src/motors.h"
 895              		.file 61 "../e-puck2_main-processor/src/leds.h"
 896              		.file 62 "../e-puck2_main-processor/ChibiOS//os/rt/include/chsys.h"
 897              		.file 63 "../e-puck2_main-processor/src/sensors/proximity.h"
 898              		.file 64 "../e-puck2_main-processor/ChibiOS//os/rt/include/chthreads.h"
 899              		.file 65 "../e-puck2_main-processor/ChibiOS//os/hal/include/hal.h"
 900              		.file 66 "../e-puck2_main-processor/src/memory_protection.h"
 901              		.file 67 "../e-puck2_main-processor/src/spi_comm.h"